target datalayout = "e-m:e-p270:32:32-p271:32:32-p272:64:64-i64:64-i128:128-f80:128-n8:16:32:64-S128"
target triple = "x86_64-pc-linux-gnu"

%struct.slurmctld_resv = type { i16, ptr, i32, ptr, ptr, i32, ptr, ptr, i32, ptr, i32, ptr, i32, i64, i64, ptr, i64, ptr, ptr, i32, i32, ptr, ptr, i32, ptr, ptr, i32, ptr, ptr, ptr, i32, i32, i64, i64, i64, i64, ptr, ptr, ptr, i32, ptr }
%struct.job_record = type { i32, ptr, ptr, ptr, ptr, i16, i32, i32, i32, ptr, i32, ptr, ptr, i16, ptr, double, i64, ptr, ptr, ptr, ptr, ptr, ptr, i32, ptr, i32, i64, i64, i32, i32, ptr, i16, i64, i64, i8, i32, ptr, ptr, ptr, ptr, ptr, ptr, ptr, ptr, i32, ptr, ptr, i32, ptr, i32, ptr, i32, ptr, i32, ptr, ptr, ptr, ptr, ptr, ptr, i32, i16, i64, ptr, ptr, ptr, ptr, %struct.acct_policy_limit_set_t, i16, ptr, ptr, ptr, ptr, ptr, i32, ptr, ptr, ptr, ptr, ptr, i32, i32, ptr, ptr, ptr, i16, ptr, ptr, i8, ptr, ptr, i64, i64, i8, i32, i32, i8, i32, ptr, i32, i64, i32, ptr, ptr, ptr, i8, i16, i64, i32, ptr, ptr, ptr, ptr, ptr, i16, i32, ptr, ptr, ptr, ptr, i32, ptr, i32, i16, i64, ptr, i32, i32, ptr, i64, ptr, ptr, i64, i32, i32, i64, i32, i32, ptr, ptr, ptr, ptr, ptr, ptr, ptr, ptr, ptr, ptr, ptr, ptr, i32, ptr, i16, i16, i16, i16, ptr, i32, i32, i8, i64 }
%struct.acct_policy_limit_set_t = type { i16, i16, ptr }

@.str.161 = private unnamed_addr constant [42 x i8] c"ReqNodeNotAvail, Reserved for maintenance\00", align 1
@.str.162 = private unnamed_addr constant [64 x i8] c"%pJ linked to defunct reservation %s, clearing that reservation\00", align 1
@.str.163 = private unnamed_addr constant [27 x i8] c"Reservation %s was deleted\00", align 1
@.str.164 = private unnamed_addr constant [44 x i8] c"%s: Holding %pJ, reservation %s was deleted\00", align 1
@__func__._foreach_clear_job_resv = private unnamed_addr constant [24 x i8] c"_foreach_clear_job_resv\00", align 1

; Function Attrs: nounwind uwtable
define internal i32 @_find_job_with_resv_ptr(ptr noundef %0, ptr noundef %1) #0 {
  %3 = alloca i32, align 4
  %4 = alloca ptr, align 8
  %5 = alloca ptr, align 8
  %6 = alloca ptr, align 8
  %7 = alloca ptr, align 8
  %8 = alloca i32, align 4
  store ptr %0, ptr %4, align 8
  store ptr %1, ptr %5, align 8
  call void @llvm.lifetime.start.p0(i64 8, ptr %6) #10
  %9 = load ptr, ptr %4, align 8
  store ptr %9, ptr %6, align 8
  call void @llvm.lifetime.start.p0(i64 8, ptr %7) #10
  %10 = load ptr, ptr %5, align 8
  store ptr %10, ptr %7, align 8
  %11 = load ptr, ptr %6, align 8
  %12 = getelementptr inbounds nuw %struct.job_record, ptr %11, i32 0, i32 111
  %13 = load ptr, ptr %12, align 8
  %14 = load ptr, ptr %7, align 8
  %15 = icmp eq ptr %13, %14
  br i1 %15, label %16, label %17

16:                                               ; preds = %2
  store i32 1, ptr %3, align 4
  store i32 1, ptr %8, align 4
  br label %31

17:                                               ; preds = %2
  %18 = load ptr, ptr %6, align 8
  %19 = getelementptr inbounds nuw %struct.job_record, ptr %18, i32 0, i32 109
  %20 = load ptr, ptr %19, align 8
  %21 = icmp ne ptr %20, null
  br i1 %21, label %22, label %30

22:                                               ; preds = %17
  %23 = load ptr, ptr %6, align 8
  %24 = getelementptr inbounds nuw %struct.job_record, ptr %23, i32 0, i32 109
  %25 = load ptr, ptr %24, align 8
  %26 = load ptr, ptr %7, align 8
  %27 = call ptr @list_find_first(ptr noundef %25, ptr noundef @_find_resv_ptr, ptr noundef %26)
  %28 = icmp ne ptr %27, null
  br i1 %28, label %29, label %30

29:                                               ; preds = %22
  store i32 1, ptr %3, align 4
  store i32 1, ptr %8, align 4
  br label %31

30:                                               ; preds = %22, %17
  store i32 0, ptr %3, align 4
  store i32 1, ptr %8, align 4
  br label %31

31:                                               ; preds = %30, %29, %16
  call void @llvm.lifetime.end.p0(i64 8, ptr %7) #10
  call void @llvm.lifetime.end.p0(i64 8, ptr %6) #10
  %32 = load i32, ptr %3, align 4
  ret i32 %32
}

; Function Attrs: nounwind uwtable
define internal i32 @_foreach_clear_job_resv(ptr noundef %0, ptr noundef %1) #0 {
  %3 = alloca i32, align 4
  %4 = alloca ptr, align 8
  %5 = alloca ptr, align 8
  %6 = alloca ptr, align 8
  %7 = alloca ptr, align 8
  %8 = alloca i32, align 4
  %9 = alloca i32, align 4
  store ptr %0, ptr %4, align 8
  store ptr %1, ptr %5, align 8
  call void @llvm.lifetime.start.p0(i64 8, ptr %6) #10
  %10 = load ptr, ptr %4, align 8
  store ptr %10, ptr %6, align 8
  call void @llvm.lifetime.start.p0(i64 8, ptr %7) #10
  %11 = load ptr, ptr %5, align 8
  store ptr %11, ptr %7, align 8
  %12 = load ptr, ptr %7, align 8
  %13 = getelementptr inbounds nuw %struct.slurmctld_resv, ptr %12, i32 0, i32 16
  %14 = load i64, ptr %13, align 8
  %15 = and i64 %14, 1
  %16 = icmp ne i64 %15, 0
  br i1 %16, label %17, label %33

17:                                               ; preds = %2
  %18 = load ptr, ptr %6, align 8
  %19 = getelementptr inbounds nuw %struct.job_record, ptr %18, i32 0, i32 126
  %20 = load i32, ptr %19, align 8
  %21 = icmp eq i32 %20, 15
  br i1 %21, label %22, label %33

22:                                               ; preds = %17
  %23 = load ptr, ptr %6, align 8
  %24 = getelementptr inbounds nuw %struct.job_record, ptr %23, i32 0, i32 125
  %25 = load ptr, ptr %24, align 8
  %26 = call i32 @xstrcmp(ptr noundef %25, ptr noundef @.str.161)
  %27 = icmp ne i32 %26, 0
  br i1 %27, label %33, label %28

28:                                               ; preds = %22
  %29 = load ptr, ptr %6, align 8
  %30 = getelementptr inbounds nuw %struct.job_record, ptr %29, i32 0, i32 126
  store i32 0, ptr %30, align 8
  %31 = load ptr, ptr %6, align 8
  %32 = getelementptr inbounds nuw %struct.job_record, ptr %31, i32 0, i32 125
  call void @slurm_xfree(ptr noundef %32)
  br label %33

33:                                               ; preds = %28, %22, %17, %2
  %34 = load ptr, ptr %6, align 8
  %35 = load ptr, ptr %7, align 8
  %36 = call i32 @_find_job_with_resv_ptr(ptr noundef %34, ptr noundef %35)
  %37 = icmp ne i32 %36, 0
  br i1 %37, label %39, label %38

38:                                               ; preds = %33
  store i32 0, ptr %3, align 4
  store i32 1, ptr %8, align 4
  br label %196

39:                                               ; preds = %33
  %40 = load ptr, ptr %6, align 8
  %41 = getelementptr inbounds nuw %struct.job_record, ptr %40, i32 0, i32 60
  %42 = load i32, ptr %41, align 8
  %43 = and i32 %42, 255
  %44 = icmp ugt i32 %43, 2
  br i1 %44, label %60, label %45

45:                                               ; preds = %39
  br label %46

46:                                               ; preds = %45
  br label %47

47:                                               ; preds = %46
  %48 = call i32 @get_log_level()
  %49 = icmp sge i32 %48, 3
  br i1 %49, label %50, label %55

50:                                               ; preds = %47
  %51 = load ptr, ptr %6, align 8
  %52 = load ptr, ptr %7, align 8
  %53 = getelementptr inbounds nuw %struct.slurmctld_resv, ptr %52, i32 0, i32 24
  %54 = load ptr, ptr %53, align 8
  call void (i32, ptr, ...) @log_var(i32 noundef 3, ptr noundef @.str.162, ptr noundef %51, ptr noundef %54)
  br label %55

55:                                               ; preds = %50, %47
  br label %56

56:                                               ; preds = %55
  br label %57

57:                                               ; preds = %56
  br label %58

58:                                               ; preds = %57
  br label %59

59:                                               ; preds = %58
  br label %60

60:                                               ; preds = %59, %39
  %61 = load ptr, ptr %6, align 8
  %62 = getelementptr inbounds nuw %struct.job_record, ptr %61, i32 0, i32 108
  store i32 0, ptr %62, align 8
  %63 = load ptr, ptr %6, align 8
  %64 = getelementptr inbounds nuw %struct.job_record, ptr %63, i32 0, i32 111
  store ptr null, ptr %64, align 8
  %65 = load ptr, ptr %6, align 8
  %66 = getelementptr inbounds nuw %struct.job_record, ptr %65, i32 0, i32 110
  call void @slurm_xfree(ptr noundef %66)
  %67 = load ptr, ptr %6, align 8
  %68 = getelementptr inbounds nuw %struct.job_record, ptr %67, i32 0, i32 109
  %69 = load ptr, ptr %68, align 8
  %70 = icmp ne ptr %69, null
  br i1 %70, label %71, label %146

71:                                               ; preds = %60
  call void @llvm.lifetime.start.p0(i64 4, ptr %9) #10
  %72 = load ptr, ptr %6, align 8
  %73 = getelementptr inbounds nuw %struct.job_record, ptr %72, i32 0, i32 109
  %74 = load ptr, ptr %73, align 8
  %75 = load ptr, ptr %7, align 8
  %76 = call ptr @list_remove_first(ptr noundef %74, ptr noundef @_find_resv_ptr, ptr noundef %75)
  %77 = load ptr, ptr %6, align 8
  %78 = getelementptr inbounds nuw %struct.job_record, ptr %77, i32 0, i32 109
  %79 = load ptr, ptr %78, align 8
  %80 = call ptr @list_peek(ptr noundef %79)
  %81 = load ptr, ptr %6, align 8
  %82 = getelementptr inbounds nuw %struct.job_record, ptr %81, i32 0, i32 111
  store ptr %80, ptr %82, align 8
  %83 = load ptr, ptr %6, align 8
  %84 = getelementptr inbounds nuw %struct.job_record, ptr %83, i32 0, i32 109
  %85 = load ptr, ptr %84, align 8
  %86 = call i32 @list_count(ptr noundef %85)
  store i32 %86, ptr %9, align 4
  %87 = load i32, ptr %9, align 4
  %88 = icmp sle i32 %87, 0
  br i1 %88, label %89, label %104

89:                                               ; preds = %71
  br label %90

90:                                               ; preds = %89
  %91 = load ptr, ptr %6, align 8
  %92 = getelementptr inbounds nuw %struct.job_record, ptr %91, i32 0, i32 109
  %93 = load ptr, ptr %92, align 8
  %94 = icmp ne ptr %93, null
  br i1 %94, label %95, label %99

95:                                               ; preds = %90
  %96 = load ptr, ptr %6, align 8
  %97 = getelementptr inbounds nuw %struct.job_record, ptr %96, i32 0, i32 109
  %98 = load ptr, ptr %97, align 8
  call void @list_destroy(ptr noundef %98)
  br label %99

99:                                               ; preds = %95, %90
  %100 = load ptr, ptr %6, align 8
  %101 = getelementptr inbounds nuw %struct.job_record, ptr %100, i32 0, i32 109
  store ptr null, ptr %101, align 8
  br label %102

102:                                              ; preds = %99
  br label %103

103:                                              ; preds = %102
  br label %145

104:                                              ; preds = %71
  %105 = load i32, ptr %9, align 4
  %106 = icmp eq i32 %105, 1
  br i1 %106, label %107, label %137

107:                                              ; preds = %104
  %108 = load ptr, ptr %6, align 8
  %109 = getelementptr inbounds nuw %struct.job_record, ptr %108, i32 0, i32 111
  %110 = load ptr, ptr %109, align 8
  %111 = getelementptr inbounds nuw %struct.slurmctld_resv, ptr %110, i32 0, i32 31
  %112 = load i32, ptr %111, align 4
  %113 = load ptr, ptr %6, align 8
  %114 = getelementptr inbounds nuw %struct.job_record, ptr %113, i32 0, i32 108
  store i32 %112, ptr %114, align 8
  %115 = load ptr, ptr %6, align 8
  %116 = getelementptr inbounds nuw %struct.job_record, ptr %115, i32 0, i32 111
  %117 = load ptr, ptr %116, align 8
  %118 = getelementptr inbounds nuw %struct.slurmctld_resv, ptr %117, i32 0, i32 24
  %119 = load ptr, ptr %118, align 8
  %120 = call ptr @xstrdup(ptr noundef %119)
  %121 = load ptr, ptr %6, align 8
  %122 = getelementptr inbounds nuw %struct.job_record, ptr %121, i32 0, i32 110
  store ptr %120, ptr %122, align 8
  br label %123

123:                                              ; preds = %107
  %124 = load ptr, ptr %6, align 8
  %125 = getelementptr inbounds nuw %struct.job_record, ptr %124, i32 0, i32 109
  %126 = load ptr, ptr %125, align 8
  %127 = icmp ne ptr %126, null
  br i1 %127, label %128, label %132

128:                                              ; preds = %123
  %129 = load ptr, ptr %6, align 8
  %130 = getelementptr inbounds nuw %struct.job_record, ptr %129, i32 0, i32 109
  %131 = load ptr, ptr %130, align 8
  call void @list_destroy(ptr noundef %131)
  br label %132

132:                                              ; preds = %128, %123
  %133 = load ptr, ptr %6, align 8
  %134 = getelementptr inbounds nuw %struct.job_record, ptr %133, i32 0, i32 109
  store ptr null, ptr %134, align 8
  br label %135

135:                                              ; preds = %132
  br label %136

136:                                              ; preds = %135
  br label %144

137:                                              ; preds = %104
  %138 = load ptr, ptr %6, align 8
  %139 = getelementptr inbounds nuw %struct.job_record, ptr %138, i32 0, i32 109
  %140 = load ptr, ptr %139, align 8
  %141 = load ptr, ptr %6, align 8
  %142 = getelementptr inbounds nuw %struct.job_record, ptr %141, i32 0, i32 110
  %143 = call i32 @list_for_each(ptr noundef %140, ptr noundef @_update_job_resv_list_str, ptr noundef %142)
  br label %144

144:                                              ; preds = %137, %136
  br label %145

145:                                              ; preds = %144, %103
  call void @llvm.lifetime.end.p0(i64 4, ptr %9) #10
  br label %146

146:                                              ; preds = %145, %60
  %147 = load ptr, ptr %7, align 8
  %148 = getelementptr inbounds nuw %struct.slurmctld_resv, ptr %147, i32 0, i32 16
  %149 = load i64, ptr %148, align 8
  %150 = and i64 %149, 536870912
  %151 = icmp ne i64 %150, 0
  br i1 %151, label %195, label %152

152:                                              ; preds = %146
  %153 = load ptr, ptr %6, align 8
  %154 = getelementptr inbounds nuw %struct.job_record, ptr %153, i32 0, i32 60
  %155 = load i32, ptr %154, align 8
  %156 = and i32 %155, 255
  %157 = icmp eq i32 %156, 0
  br i1 %157, label %158, label %195

158:                                              ; preds = %152
  %159 = load ptr, ptr %6, align 8
  %160 = getelementptr inbounds nuw %struct.job_record, ptr %159, i32 0, i32 111
  %161 = load ptr, ptr %160, align 8
  %162 = icmp ne ptr %161, null
  br i1 %162, label %195, label %163

163:                                              ; preds = %158
  %164 = load ptr, ptr %6, align 8
  %165 = getelementptr inbounds nuw %struct.job_record, ptr %164, i32 0, i32 126
  %166 = load i32, ptr %165, align 8
  %167 = icmp ne i32 %166, 8
  br i1 %167, label %168, label %195

168:                                              ; preds = %163
  %169 = load ptr, ptr %6, align 8
  %170 = getelementptr inbounds nuw %struct.job_record, ptr %169, i32 0, i32 125
  call void @slurm_xfree(ptr noundef %170)
  %171 = load ptr, ptr %6, align 8
  %172 = getelementptr inbounds nuw %struct.job_record, ptr %171, i32 0, i32 126
  store i32 198, ptr %172, align 8
  %173 = load ptr, ptr %6, align 8
  call void @job_state_set_flag(ptr noundef %173, i32 noundef 2097152)
  %174 = load ptr, ptr %6, align 8
  %175 = getelementptr inbounds nuw %struct.job_record, ptr %174, i32 0, i32 125
  %176 = load ptr, ptr %7, align 8
  %177 = getelementptr inbounds nuw %struct.slurmctld_resv, ptr %176, i32 0, i32 24
  %178 = load ptr, ptr %177, align 8
  call void (ptr, ptr, ...) @_xstrfmtcat(ptr noundef %175, ptr noundef @.str.163, ptr noundef %178)
  br label %179

179:                                              ; preds = %168
  br label %180

180:                                              ; preds = %179
  %181 = call i32 @get_log_level()
  %182 = icmp sge i32 %181, 5
  br i1 %182, label %183, label %188

183:                                              ; preds = %180
  %184 = load ptr, ptr %6, align 8
  %185 = load ptr, ptr %7, align 8
  %186 = getelementptr inbounds nuw %struct.slurmctld_resv, ptr %185, i32 0, i32 24
  %187 = load ptr, ptr %186, align 8
  call void (i32, ptr, ...) @log_var(i32 noundef 5, ptr noundef @.str.164, ptr noundef @__func__._foreach_clear_job_resv, ptr noundef %184, ptr noundef %187)
  br label %188

188:                                              ; preds = %183, %180
  br label %189

189:                                              ; preds = %188
  br label %190

190:                                              ; preds = %189
  br label %191

191:                                              ; preds = %190
  br label %192

192:                                              ; preds = %191
  %193 = load ptr, ptr %6, align 8
  %194 = getelementptr inbounds nuw %struct.job_record, ptr %193, i32 0, i32 97
  store i32 0, ptr %194, align 8
  br label %195

195:                                              ; preds = %192, %163, %158, %152, %146
  store i32 0, ptr %3, align 4
  store i32 1, ptr %8, align 4
  br label %196

196:                                              ; preds = %195, %38
  call void @llvm.lifetime.end.p0(i64 8, ptr %7) #10
  call void @llvm.lifetime.end.p0(i64 8, ptr %6) #10
  %197 = load i32, ptr %3, align 4
  ret i32 %197
}