; Function Attrs: nounwind uwtable
define internal noundef i32 @_foreach_clear_job_resv(ptr noundef %0, ptr noundef %1) #0 {
  %3 = getelementptr inbounds nuw i8, ptr %1, i64 128
  %4 = load i64, ptr %3, align 8
  %5 = and i64 %4, 1
  %.not = icmp eq i64 %5, 0
  br i1 %.not, label %15, label %6

6:                                                ; preds = %2
  %7 = getelementptr inbounds nuw i8, ptr %0, i64 928
  %8 = load i32, ptr %7, align 8
  %9 = icmp eq i32 %8, 15
  br i1 %9, label %10, label %15

10:                                               ; preds = %6
  %11 = getelementptr inbounds nuw i8, ptr %0, i64 920
  %12 = load ptr, ptr %11, align 8
  %13 = tail call i32 @xstrcmp(ptr noundef %12, ptr noundef nonnull @.str.161) #19
  %.not50 = icmp eq i32 %13, 0
  br i1 %.not50, label %14, label %15

14:                                               ; preds = %10
  store i32 0, ptr %7, align 8
  tail call void @slurm_xfree(ptr noundef nonnull %11) #19
  br label %15

15:                                               ; preds = %14, %10, %6, %2
  %16 = getelementptr inbounds nuw i8, ptr %0, i64 824
  %17 = load ptr, ptr %16, align 8
  %18 = icmp eq ptr %17, %1
  br i1 %18, label %24, label %19

19:                                               ; preds = %15
  %20 = getelementptr inbounds nuw i8, ptr %0, i64 808
  %21 = load ptr, ptr %20, align 8
  %.not.i = icmp eq ptr %21, null
  br i1 %.not.i, label %_find_job_with_resv_ptr.exit, label %22

22:                                               ; preds = %19
  %23 = tail call ptr @list_find_first(ptr noundef nonnull %21, ptr noundef nonnull @_find_resv_ptr, ptr noundef nonnull %1) #19
  %.not9.i = icmp eq ptr %23, null
  br i1 %.not9.i, label %_find_job_with_resv_ptr.exit, label %24

24:                                               ; preds = %15, %22
  %25 = getelementptr inbounds nuw i8, ptr %0, i64 448
  %26 = load i32, ptr %25, align 8
  %27 = and i32 %26, 255
  %28 = icmp samesign ugt i32 %27, 2
  br i1 %28, label %35, label %29

29:                                               ; preds = %24
  %30 = tail call i32 @get_log_level() #19
  %31 = icmp sgt i32 %30, 2
  br i1 %31, label %32, label %35

32:                                               ; preds = %29
  %33 = getelementptr inbounds nuw i8, ptr %1, i64 184
  %34 = load ptr, ptr %33, align 8
  tail call void (i32, ptr, ...) @log_var(i32 noundef 3, ptr noundef nonnull @.str.162, ptr noundef nonnull %0, ptr noundef %34) #19
  br label %35

35:                                               ; preds = %29, %32, %24
  %36 = getelementptr inbounds nuw i8, ptr %0, i64 800
  store i32 0, ptr %36, align 8
  store ptr null, ptr %16, align 8
  %37 = getelementptr inbounds nuw i8, ptr %0, i64 816
  tail call void @slurm_xfree(ptr noundef nonnull %37) #19
  %38 = getelementptr inbounds nuw i8, ptr %0, i64 808
  %39 = load ptr, ptr %38, align 8
  %.not52 = icmp eq ptr %39, null
  br i1 %.not52, label %66, label %40

40:                                               ; preds = %35
  %41 = tail call ptr @list_remove_first(ptr noundef nonnull %39, ptr noundef nonnull @_find_resv_ptr, ptr noundef nonnull %1) #19
  %42 = load ptr, ptr %38, align 8
  %43 = tail call ptr @list_peek(ptr noundef %42) #19
  store ptr %43, ptr %16, align 8
  %44 = load ptr, ptr %38, align 8
  %45 = tail call i32 @list_count(ptr noundef %44) #19
  %46 = icmp slt i32 %45, 1
  br i1 %46, label %47, label %51

47:                                               ; preds = %40
  %48 = load ptr, ptr %38, align 8
  %.not54 = icmp eq ptr %48, null
  br i1 %.not54, label %50, label %49

49:                                               ; preds = %47
  tail call void @list_destroy(ptr noundef nonnull %48) #19
  br label %50

50:                                               ; preds = %49, %47
  store ptr null, ptr %38, align 8
  br label %66

51:                                               ; preds = %40
  %52 = icmp eq i32 %45, 1
  br i1 %52, label %53, label %63

53:                                               ; preds = %51
  %54 = load ptr, ptr %16, align 8
  %55 = getelementptr inbounds nuw i8, ptr %54, i64 236
  %56 = load i32, ptr %55, align 4
  store i32 %56, ptr %36, align 8
  %57 = getelementptr inbounds nuw i8, ptr %54, i64 184
  %58 = load ptr, ptr %57, align 8
  %59 = tail call ptr @xstrdup(ptr noundef %58) #19
  store ptr %59, ptr %37, align 8
  %60 = load ptr, ptr %38, align 8
  %.not53 = icmp eq ptr %60, null
  br i1 %.not53, label %62, label %61

61:                                               ; preds = %53
  tail call void @list_destroy(ptr noundef nonnull %60) #19
  br label %62

62:                                               ; preds = %61, %53
  store ptr null, ptr %38, align 8
  br label %66

63:                                               ; preds = %51
  %64 = load ptr, ptr %38, align 8
  %65 = tail call i32 @list_for_each(ptr noundef %64, ptr noundef nonnull @_update_job_resv_list_str, ptr noundef nonnull %37) #19
  br label %66

66:                                               ; preds = %50, %63, %62, %35
  %67 = load i64, ptr %3, align 8
  %68 = and i64 %67, 536870912
  %.not55 = icmp eq i64 %68, 0
  br i1 %.not55, label %69, label %_find_job_with_resv_ptr.exit

69:                                               ; preds = %66
  %70 = load i32, ptr %25, align 8
  %71 = and i32 %70, 255
  %72 = icmp eq i32 %71, 0
  br i1 %72, label %73, label %_find_job_with_resv_ptr.exit

73:                                               ; preds = %69
  %74 = load ptr, ptr %16, align 8
  %.not56 = icmp eq ptr %74, null
  br i1 %.not56, label %75, label %_find_job_with_resv_ptr.exit

75:                                               ; preds = %73
  %76 = getelementptr inbounds nuw i8, ptr %0, i64 928
  %77 = load i32, ptr %76, align 8
  %.not57 = icmp eq i32 %77, 8
  br i1 %.not57, label %_find_job_with_resv_ptr.exit, label %78

78:                                               ; preds = %75
  %79 = getelementptr inbounds nuw i8, ptr %0, i64 920
  tail call void @slurm_xfree(ptr noundef nonnull %79) #19
  store i32 198, ptr %76, align 8
  tail call void @job_state_set_flag(ptr noundef nonnull %0, i32 noundef 2097152) #19
  %80 = getelementptr inbounds nuw i8, ptr %1, i64 184
  %81 = load ptr, ptr %80, align 8
  tail call void (ptr, ptr, ...) @_xstrfmtcat(ptr noundef nonnull %79, ptr noundef nonnull @.str.163, ptr noundef %81) #19
  %82 = tail call i32 @get_log_level() #19
  %83 = icmp sgt i32 %82, 4
  br i1 %83, label %84, label %86

84:                                               ; preds = %78
  %85 = load ptr, ptr %80, align 8
  tail call void (i32, ptr, ...) @log_var(i32 noundef 5, ptr noundef nonnull @.str.164, ptr noundef nonnull @__func__._foreach_clear_job_resv, ptr noundef nonnull %0, ptr noundef %85) #19
  br label %86

86:                                               ; preds = %84, %78
  %87 = getelementptr inbounds nuw i8, ptr %0, i64 720
  store i32 0, ptr %87, align 8
  br label %_find_job_with_resv_ptr.exit

_find_job_with_resv_ptr.exit:                     ; preds = %22, %19, %66, %69, %73, %75, %86
  ret i32 0
}